target datalayout = "e-m:e-p270:32:32-p271:32:32-p272:64:64-i64:64-i128:128-f80:128-n8:16:32:64-S128"
target triple = "x86_64-pc-linux-gnu"

%struct.store_engine = type { %union.pthread_mutex_t, ptr, ptr, ptr, ptr, ptr, ptr, ptr, i64, i32, i32, i32, i32, i32, i32, i32, i32, %union.pthread_mutex_t, %struct.extstore_stats, %struct.store_maint }
%union.pthread_mutex_t = type { %struct.__pthread_mutex_s }
%struct.__pthread_mutex_s = type { i32, i32, i32, i32, i32, i16, i16, %struct.__pthread_internal_list }
%struct.__pthread_internal_list = type { ptr, ptr }
%struct.extstore_stats = type { i64, i64, i64, i64, i64, i64, i64, i64, i64, i64, i64, i64, i64, i64, i64, i64, i64, ptr }
%struct.store_maint = type { %union.pthread_mutex_t }
%struct._store_page = type { %union.pthread_mutex_t, i64, i64, i64, i32, i32, i32, i32, i32, i32, i32, i16, i8, i8, i8, ptr, ptr }
%struct.__store_wbuf = type { ptr, ptr, ptr, i32, i32, i32, i8, i8 }
%struct._obj_io = type { ptr, ptr, ptr, ptr, i32, i32, i32, i32, i16, i32, ptr }

; Function Attrs: nounwind uwtable
define dso_local void @extstore_write(ptr noundef %0, ptr noundef %1) #0 {
  %3 = alloca ptr, align 8
  %4 = alloca ptr, align 8
  %5 = alloca ptr, align 8
  %6 = alloca ptr, align 8
  store ptr %0, ptr %3, align 8, !tbaa !4
  store ptr %1, ptr %4, align 8, !tbaa !108
  call void @llvm.lifetime.start.p0(i64 8, ptr %5) #8
  %7 = load ptr, ptr %3, align 8, !tbaa !4
  store ptr %7, ptr %5, align 8, !tbaa !10
  call void @llvm.lifetime.start.p0(i64 8, ptr %6) #8
  %8 = load ptr, ptr %5, align 8, !tbaa !10
  %9 = getelementptr inbounds nuw %struct.store_engine, ptr %8, i32 0, i32 1
  %10 = load ptr, ptr %9, align 8, !tbaa !39
  %11 = load ptr, ptr %4, align 8, !tbaa !108
  %12 = getelementptr inbounds nuw %struct._obj_io, ptr %11, i32 0, i32 8
  %13 = load i16, ptr %12, align 8, !tbaa !130
  %14 = zext i16 %13 to i64
  %15 = getelementptr inbounds nuw %struct._store_page, ptr %10, i64 %14
  store ptr %15, ptr %6, align 8, !tbaa !40
  %16 = load ptr, ptr %6, align 8, !tbaa !40
  %17 = getelementptr inbounds nuw %struct._store_page, ptr %16, i32 0, i32 15
  %18 = load ptr, ptr %17, align 8, !tbaa !142
  %19 = getelementptr inbounds nuw %struct.__store_wbuf, ptr %18, i32 0, i32 5
  %20 = load i32, ptr %19, align 8, !tbaa !147
  %21 = load ptr, ptr %6, align 8, !tbaa !40
  %22 = getelementptr inbounds nuw %struct._store_page, ptr %21, i32 0, i32 15
  %23 = load ptr, ptr %22, align 8, !tbaa !142
  %24 = getelementptr inbounds nuw %struct.__store_wbuf, ptr %23, i32 0, i32 4
  %25 = load i32, ptr %24, align 4, !tbaa !126
  %26 = load ptr, ptr %6, align 8, !tbaa !40
  %27 = getelementptr inbounds nuw %struct._store_page, ptr %26, i32 0, i32 15
  %28 = load ptr, ptr %27, align 8, !tbaa !142
  %29 = getelementptr inbounds nuw %struct.__store_wbuf, ptr %28, i32 0, i32 3
  %30 = load i32, ptr %29, align 8, !tbaa !125
  %31 = sub i32 %25, %30
  %32 = add i32 %20, %31
  %33 = load ptr, ptr %4, align 8, !tbaa !108
  %34 = getelementptr inbounds nuw %struct._obj_io, ptr %33, i32 0, i32 7
  store i32 %32, ptr %34, align 4, !tbaa !133
  %35 = load ptr, ptr %6, align 8, !tbaa !40
  %36 = getelementptr inbounds nuw %struct._store_page, ptr %35, i32 0, i32 4
  %37 = load i32, ptr %36, align 8, !tbaa !48
  %38 = load ptr, ptr %4, align 8, !tbaa !108
  %39 = getelementptr inbounds nuw %struct._obj_io, ptr %38, i32 0, i32 5
  store i32 %37, ptr %39, align 4, !tbaa !132
  %40 = load ptr, ptr %4, align 8, !tbaa !108
  %41 = getelementptr inbounds nuw %struct._obj_io, ptr %40, i32 0, i32 6
  %42 = load i32, ptr %41, align 8, !tbaa !134
  %43 = load ptr, ptr %6, align 8, !tbaa !40
  %44 = getelementptr inbounds nuw %struct._store_page, ptr %43, i32 0, i32 15
  %45 = load ptr, ptr %44, align 8, !tbaa !142
  %46 = getelementptr inbounds nuw %struct.__store_wbuf, ptr %45, i32 0, i32 2
  %47 = load ptr, ptr %46, align 8, !tbaa !124
  %48 = zext i32 %42 to i64
  %49 = getelementptr inbounds nuw i8, ptr %47, i64 %48
  store ptr %49, ptr %46, align 8, !tbaa !124
  %50 = load ptr, ptr %4, align 8, !tbaa !108
  %51 = getelementptr inbounds nuw %struct._obj_io, ptr %50, i32 0, i32 6
  %52 = load i32, ptr %51, align 8, !tbaa !134
  %53 = load ptr, ptr %6, align 8, !tbaa !40
  %54 = getelementptr inbounds nuw %struct._store_page, ptr %53, i32 0, i32 15
  %55 = load ptr, ptr %54, align 8, !tbaa !142
  %56 = getelementptr inbounds nuw %struct.__store_wbuf, ptr %55, i32 0, i32 3
  %57 = load i32, ptr %56, align 8, !tbaa !125
  %58 = sub i32 %57, %52
  store i32 %58, ptr %56, align 8, !tbaa !125
  %59 = load ptr, ptr %4, align 8, !tbaa !108
  %60 = getelementptr inbounds nuw %struct._obj_io, ptr %59, i32 0, i32 6
  %61 = load i32, ptr %60, align 8, !tbaa !134
  %62 = zext i32 %61 to i64
  %63 = load ptr, ptr %6, align 8, !tbaa !40
  %64 = getelementptr inbounds nuw %struct._store_page, ptr %63, i32 0, i32 2
  %65 = load i64, ptr %64, align 8, !tbaa !50
  %66 = add i64 %65, %62
  store i64 %66, ptr %64, align 8, !tbaa !50
  %67 = load ptr, ptr %6, align 8, !tbaa !40
  %68 = getelementptr inbounds nuw %struct._store_page, ptr %67, i32 0, i32 1
  %69 = load i64, ptr %68, align 8, !tbaa !57
  %70 = add i64 %69, 1
  store i64 %70, ptr %68, align 8, !tbaa !57
  %71 = load ptr, ptr %5, align 8, !tbaa !10
  %72 = getelementptr inbounds nuw %struct.store_engine, ptr %71, i32 0, i32 17
  %73 = call i32 @pthread_mutex_lock(ptr noundef %72) #8
  %74 = load ptr, ptr %4, align 8, !tbaa !108
  %75 = getelementptr inbounds nuw %struct._obj_io, ptr %74, i32 0, i32 6
  %76 = load i32, ptr %75, align 8, !tbaa !134
  %77 = zext i32 %76 to i64
  %78 = load ptr, ptr %5, align 8, !tbaa !10
  %79 = getelementptr inbounds nuw %struct.store_engine, ptr %78, i32 0, i32 18
  %80 = getelementptr inbounds nuw %struct.extstore_stats, ptr %79, i32 0, i32 12
  %81 = load i64, ptr %80, align 8, !tbaa !149
  %82 = add i64 %81, %77
  store i64 %82, ptr %80, align 8, !tbaa !149
  %83 = load ptr, ptr %4, align 8, !tbaa !108
  %84 = getelementptr inbounds nuw %struct._obj_io, ptr %83, i32 0, i32 6
  %85 = load i32, ptr %84, align 8, !tbaa !134
  %86 = zext i32 %85 to i64
  %87 = load ptr, ptr %5, align 8, !tbaa !10
  %88 = getelementptr inbounds nuw %struct.store_engine, ptr %87, i32 0, i32 18
  %89 = getelementptr inbounds nuw %struct.extstore_stats, ptr %88, i32 0, i32 14
  %90 = load i64, ptr %89, align 8, !tbaa !64
  %91 = add i64 %90, %86
  store i64 %91, ptr %89, align 8, !tbaa !64
  %92 = load ptr, ptr %5, align 8, !tbaa !10
  %93 = getelementptr inbounds nuw %struct.store_engine, ptr %92, i32 0, i32 18
  %94 = getelementptr inbounds nuw %struct.extstore_stats, ptr %93, i32 0, i32 9
  %95 = load i64, ptr %94, align 8, !tbaa !150
  %96 = add i64 %95, 1
  store i64 %96, ptr %94, align 8, !tbaa !150
  %97 = load ptr, ptr %5, align 8, !tbaa !10
  %98 = getelementptr inbounds nuw %struct.store_engine, ptr %97, i32 0, i32 18
  %99 = getelementptr inbounds nuw %struct.extstore_stats, ptr %98, i32 0, i32 10
  %100 = load i64, ptr %99, align 8, !tbaa !63
  %101 = add i64 %100, 1
  store i64 %101, ptr %99, align 8, !tbaa !63
  %102 = load ptr, ptr %5, align 8, !tbaa !10
  %103 = getelementptr inbounds nuw %struct.store_engine, ptr %102, i32 0, i32 17
  %104 = call i32 @pthread_mutex_unlock(ptr noundef %103) #8
  %105 = load ptr, ptr %6, align 8, !tbaa !40
  %106 = getelementptr inbounds nuw %struct._store_page, ptr %105, i32 0, i32 0
  %107 = call i32 @pthread_mutex_unlock(ptr noundef %106) #8
  call void @llvm.lifetime.end.p0(i64 8, ptr %6) #8
  call void @llvm.lifetime.end.p0(i64 8, ptr %5) #8
  ret void
}