; Function Attrs: nounwind uwtable
define dso_local void @extstore_write(ptr noundef %0, ptr noundef captures(none) initializes((36, 40), (44, 48)) %1) local_unnamed_addr #0 {
  %3 = getelementptr inbounds nuw i8, ptr %0, i64 40
  %4 = load ptr, ptr %3, align 8, !tbaa !33
  %5 = getelementptr inbounds nuw i8, ptr %1, i64 48
  %6 = load i16, ptr %5, align 8, !tbaa !117
  %7 = zext i16 %6 to i64
  %8 = getelementptr inbounds nuw %struct._store_page, ptr %4, i64 %7
  %9 = getelementptr inbounds nuw i8, ptr %8, i64 104
  %10 = load ptr, ptr %9, align 8, !tbaa !121
  %11 = getelementptr inbounds nuw i8, ptr %10, i64 32
  %12 = load i32, ptr %11, align 8, !tbaa !124
  %13 = getelementptr inbounds nuw i8, ptr %10, i64 28
  %14 = load i32, ptr %13, align 4, !tbaa !101
  %15 = getelementptr inbounds nuw i8, ptr %10, i64 24
  %16 = load i32, ptr %15, align 8, !tbaa !100
  %17 = add i32 %14, %12
  %18 = sub i32 %17, %16
  %19 = getelementptr inbounds nuw i8, ptr %1, i64 44
  store i32 %18, ptr %19, align 4, !tbaa !120
  %20 = getelementptr inbounds nuw i8, ptr %8, i64 64
  %21 = load i32, ptr %20, align 8, !tbaa !41
  %22 = getelementptr inbounds nuw i8, ptr %1, i64 36
  store i32 %21, ptr %22, align 4, !tbaa !119
  %23 = getelementptr inbounds nuw i8, ptr %1, i64 40
  %24 = load i32, ptr %23, align 8, !tbaa !125
  %25 = getelementptr inbounds nuw i8, ptr %10, i64 16
  %26 = load ptr, ptr %25, align 8, !tbaa !99
  %27 = zext i32 %24 to i64
  %28 = getelementptr inbounds nuw i8, ptr %26, i64 %27
  store ptr %28, ptr %25, align 8, !tbaa !99
  %29 = sub i32 %16, %24
  store i32 %29, ptr %15, align 8, !tbaa !100
  %30 = getelementptr inbounds nuw i8, ptr %8, i64 48
  %31 = load i64, ptr %30, align 8, !tbaa !43
  %32 = add i64 %31, %27
  store i64 %32, ptr %30, align 8, !tbaa !43
  %33 = getelementptr inbounds nuw i8, ptr %8, i64 40
  %34 = load i64, ptr %33, align 8, !tbaa !50
  %35 = add i64 %34, 1
  store i64 %35, ptr %33, align 8, !tbaa !50
  %36 = getelementptr inbounds nuw i8, ptr %0, i64 136
  %37 = tail call i32 @pthread_mutex_lock(ptr noundef nonnull %36) #13
  %38 = load i32, ptr %23, align 8, !tbaa !125
  %39 = zext i32 %38 to i64
  %40 = getelementptr inbounds nuw i8, ptr %0, i64 272
  %41 = load i64, ptr %40, align 8, !tbaa !141
  %42 = add i64 %41, %39
  store i64 %42, ptr %40, align 8, !tbaa !141
  %43 = getelementptr inbounds nuw i8, ptr %0, i64 288
  %44 = load i64, ptr %43, align 8, !tbaa !57
  %45 = add i64 %44, %39
  store i64 %45, ptr %43, align 8, !tbaa !57
  %46 = getelementptr inbounds nuw i8, ptr %0, i64 248
  %47 = load i64, ptr %46, align 8, !tbaa !142
  %48 = add i64 %47, 1
  store i64 %48, ptr %46, align 8, !tbaa !142
  %49 = getelementptr inbounds nuw i8, ptr %0, i64 256
  %50 = load i64, ptr %49, align 8, !tbaa !56
  %51 = add i64 %50, 1
  store i64 %51, ptr %49, align 8, !tbaa !56
  %52 = tail call i32 @pthread_mutex_unlock(ptr noundef nonnull %36) #13
  %53 = tail call i32 @pthread_mutex_unlock(ptr noundef %8) #13
  ret void
}